; Function Attrs: mustprogress uwtable
define dso_local void @_ZNK13ArrayVariable20build_init_recursiveEmRKSt6vectorINSt7__cxx1112basic_stringIcSt11char_traitsIcESaIcEEESaIS6_EE(ptr dead_on_unwind noalias writable sret(%"class.std::__cxx11::basic_string") align 8 %0, ptr nocapture noundef nonnull readonly align 8 dereferenceable(288) %1, i64 noundef %2, ptr nocapture noundef nonnull readonly align 8 dereferenceable(24) %3) local_unnamed_addr #3 align 2 personality ptr @__gxx_personality_v0 {
  %5 = alloca %"class.std::allocator.20", align 1
  %6 = alloca %"class.std::__cxx11::basic_string", align 8
  call void @_ZNSaIcEC1Ev(ptr noundef nonnull align 1 dereferenceable(1) %5) #19
  invoke void @_ZNSt7__cxx1112basic_stringIcSt11char_traitsIcESaIcEEC1EPKcRKS3_(ptr noundef nonnull align 8 dereferenceable(32) %0, ptr noundef nonnull @.str, ptr noundef nonnull align 1 dereferenceable(1) %5)
          to label %7 unwind label %45

7:                                                ; preds = %4
  call void @_ZNSaIcED1Ev(ptr noundef nonnull align 1 dereferenceable(1) %5) #19
  %8 = getelementptr inbounds i8, ptr %1, i64 216
  %9 = load ptr, ptr %8, align 8
  %10 = getelementptr inbounds i32, ptr %9, i64 %2
  %11 = load i32, ptr %10, align 4
  %.not23 = icmp eq i32 %11, 0
  br i1 %.not23, label %._crit_edge, label %.lr.ph

.lr.ph:                                           ; preds = %7
  %12 = getelementptr inbounds i8, ptr %1, i64 224
  %13 = add i64 %2, 1
  %14 = getelementptr inbounds i8, ptr %3, i64 8
  br label %15

15:                                               ; preds = %.lr.ph, %61
  %16 = phi ptr [ %9, %.lr.ph ], [ %63, %61 ]
  %.022 = phi i64 [ 0, %.lr.ph ], [ %64, %61 ]
  %17 = load ptr, ptr %12, align 8
  %18 = ptrtoint ptr %17 to i64
  %19 = ptrtoint ptr %16 to i64
  %20 = sub i64 %18, %19
  %21 = ashr exact i64 %20, 2
  %22 = add nsw i64 %21, -1
  %23 = icmp eq i64 %22, %2
  br i1 %23, label %24, label %47

24:                                               ; preds = %15
  %25 = load i32, ptr @_ZZNK13ArrayVariable20build_init_recursiveEmRKSt6vectorINSt7__cxx1112basic_stringIcSt11char_traitsIcESaIcEEESaIS6_EEE4seed, align 4
  %26 = mul i32 %25, %25
  %27 = zext i32 %26 to i64
  %28 = add nuw nsw i64 %.022, 7
  %29 = add nuw nsw i64 %.022, 13
  %30 = mul i64 %28, %29
  %31 = add i64 %30, %27
  %32 = mul i64 %31, 52369
  %33 = load ptr, ptr %14, align 8
  %34 = load ptr, ptr %3, align 8
  %35 = ptrtoint ptr %33 to i64
  %36 = ptrtoint ptr %34 to i64
  %37 = sub i64 %35, %36
  %38 = ashr exact i64 %37, 5
  %39 = urem i64 %32, %38
  %40 = getelementptr inbounds %"class.std::__cxx11::basic_string", ptr %34, i64 %39
  %41 = invoke noundef nonnull align 8 dereferenceable(32) ptr @_ZNSt7__cxx1112basic_stringIcSt11char_traitsIcESaIcEEpLERKS4_(ptr noundef nonnull align 8 dereferenceable(32) %0, ptr noundef nonnull align 8 dereferenceable(32) %40)
          to label %42 unwind label %.loopexit

42:                                               ; preds = %24
  %43 = load i32, ptr @_ZZNK13ArrayVariable20build_init_recursiveEmRKSt6vectorINSt7__cxx1112basic_stringIcSt11char_traitsIcESaIcEEESaIS6_EEE4seed, align 4
  %44 = add i32 %43, 1
  store i32 %44, ptr @_ZZNK13ArrayVariable20build_init_recursiveEmRKSt6vectorINSt7__cxx1112basic_stringIcSt11char_traitsIcESaIcEEESaIS6_EEE4seed, align 4
  br label %53

45:                                               ; preds = %4
  %46 = landingpad { ptr, i32 }
          cleanup
  call void @_ZNSaIcED1Ev(ptr noundef nonnull align 1 dereferenceable(1) %5) #19
  br label %70

.loopexit:                                        ; preds = %24, %47, %59
  %lpad.loopexit = landingpad { ptr, i32 }
          cleanup
  br label %69

.loopexit.split-lp:                               ; preds = %._crit_edge
  %lpad.loopexit.split-lp = landingpad { ptr, i32 }
          cleanup
  br label %69

47:                                               ; preds = %15
  invoke void @_ZNK13ArrayVariable20build_init_recursiveEmRKSt6vectorINSt7__cxx1112basic_stringIcSt11char_traitsIcESaIcEEESaIS6_EE(ptr dead_on_unwind nonnull writable sret(%"class.std::__cxx11::basic_string") align 8 %6, ptr noundef nonnull align 8 dereferenceable(288) %1, i64 noundef %13, ptr noundef nonnull align 8 dereferenceable(24) %3)
          to label %48 unwind label %.loopexit

48:                                               ; preds = %47
  %49 = invoke noundef nonnull align 8 dereferenceable(32) ptr @_ZNSt7__cxx1112basic_stringIcSt11char_traitsIcESaIcEEpLERKS4_(ptr noundef nonnull align 8 dereferenceable(32) %0, ptr noundef nonnull align 8 dereferenceable(32) %6)
          to label %50 unwind label %51

50:                                               ; preds = %48
  call void @_ZNSt7__cxx1112basic_stringIcSt11char_traitsIcESaIcEED1Ev(ptr noundef nonnull align 8 dereferenceable(32) %6) #19
  br label %53

51:                                               ; preds = %48
  %52 = landingpad { ptr, i32 }
          cleanup
  call void @_ZNSt7__cxx1112basic_stringIcSt11char_traitsIcESaIcEED1Ev(ptr noundef nonnull align 8 dereferenceable(32) %6) #19
  br label %69

53:                                               ; preds = %50, %42
  %54 = load ptr, ptr %8, align 8
  %55 = getelementptr inbounds i32, ptr %54, i64 %2
  %56 = load i32, ptr %55, align 4
  %57 = add i32 %56, -1
  %58 = zext i32 %57 to i64
  %.not = icmp eq i64 %.022, %58
  br i1 %.not, label %61, label %59

59:                                               ; preds = %53
  %60 = invoke noundef nonnull align 8 dereferenceable(32) ptr @_ZNSt7__cxx1112basic_stringIcSt11char_traitsIcESaIcEEpLEPKc(ptr noundef nonnull align 8 dereferenceable(32) %0, ptr noundef nonnull @.str.1)
          to label %._crit_edge24 unwind label %.loopexit

._crit_edge24:                                    ; preds = %59
  %.pre = load ptr, ptr %8, align 8
  %.phi.trans.insert = getelementptr inbounds i32, ptr %.pre, i64 %2
  %.pre25 = load i32, ptr %.phi.trans.insert, align 4
  br label %61

61:                                               ; preds = %._crit_edge24, %53
  %62 = phi i32 [ %.pre25, %._crit_edge24 ], [ %56, %53 ]
  %63 = phi ptr [ %.pre, %._crit_edge24 ], [ %54, %53 ]
  %64 = add nuw nsw i64 %.022, 1
  %65 = zext i32 %62 to i64
  %66 = icmp ult i64 %64, %65
  br i1 %66, label %15, label %._crit_edge, !llvm.loop !21

._crit_edge:                                      ; preds = %61, %7
  %67 = invoke noundef nonnull align 8 dereferenceable(32) ptr @_ZNSt7__cxx1112basic_stringIcSt11char_traitsIcESaIcEEpLEPKc(ptr noundef nonnull align 8 dereferenceable(32) %0, ptr noundef nonnull @.str.2)
          to label %68 unwind label %.loopexit.split-lp

68:                                               ; preds = %._crit_edge
  ret void

69:                                               ; preds = %.loopexit, %.loopexit.split-lp, %51
  %.pn = phi { ptr, i32 } [ %52, %51 ], [ %lpad.loopexit, %.loopexit ], [ %lpad.loopexit.split-lp, %.loopexit.split-lp ]
  call void @_ZNSt7__cxx1112basic_stringIcSt11char_traitsIcESaIcEED1Ev(ptr noundef nonnull align 8 dereferenceable(32) %0) #19
  br label %70

70:                                               ; preds = %69, %45
  %.pn.pn = phi { ptr, i32 } [ %.pn, %69 ], [ %46, %45 ]
  resume { ptr, i32 } %.pn.pn
}